(dp1
S'/System/Library/Frameworks/Python.framework/Versions/2.7/lib/python2.7/weakref.py'
p2
c__builtin__
set
p3
((lp4
I249
aI250
aI244
aI245
aI262
atRp5
sS'/System/Library/Frameworks/Python.framework/Versions/2.7/lib/python2.7/sre_compile.py'
p6
g3
((lp7
I516
aI517
aI518
aI521
aI522
aI523
aI524
aI35
aI36
aI37
aI38
aI39
aI40
aI41
aI42
aI43
aI44
aI45
aI47
aI48
aI49
aI50
aI51
aI52
aI53
aI55
aI56
aI57
aI58
aI59
aI60
aI65
aI66
aI75
aI76
aI77
aI80
aI81
aI82
aI83
aI84
aI85
aI97
aI106
aI108
aI121
aI127
aI128
aI129
aI131
aI133
aI135
aI181
aI182
aI184
aI185
aI186
aI188
aI189
aI190
aI191
aI192
aI193
aI195
aI197
aI198
aI200
aI203
aI206
aI210
aI211
aI212
aI213
aI214
aI215
aI217
aI218
aI219
aI220
aI221
aI222
aI224
aI229
aI230
aI231
aI232
aI233
aI234
aI235
aI236
aI237
aI238
aI239
aI240
aI241
aI243
aI245
aI246
aI247
aI249
aI250
aI257
aI357
aI358
aI360
aI366
aI367
aI368
aI370
aI371
aI372
aI373
aI374
aI375
aI430
aI431
aI432
aI434
aI435
aI439
aI441
aI443
aI444
aI448
aI451
aI453
aI464
aI466
aI476
aI477
aI478
aI483
aI484
aI487
aI490
aI492
aI494
aI499
aI500
aI501
aI505
aI510
atRp8
sS'/System/Library/Frameworks/Python.framework/Versions/2.7/lib/python2.7/unittest/suite.py'
p9
g3
((lp10
I1
aI3
aI5
aI6
aI8
aI11
aI12
aI13
aI16
aI18
aI19
aI20
aI21
aI23
aI26
aI31
aI35
aI37
aI38
aI40
aI46
aI48
aI50
aI54
aI56
aI57
aI59
aI60
aI62
aI69
aI70
aI72
aI78
aI86
aI88
aI89
aI90
aI91
aI93
aI94
aI97
aI98
aI99
aI100
aI101
aI103
aI104
aI107
aI108
aI112
aI113
aI114
aI115
aI116
aI118
aI125
aI126
aI127
aI128
aI129
aI130
aI132
aI135
aI136
aI142
aI143
aI144
aI145
aI146
aI155
aI157
aI158
aI159
aI160
aI161
aI162
aI165
aI166
aI167
aI168
aI169
aI171
aI173
aI174
aI175
aI178
aI179
aI192
aI200
aI201
aI202
aI203
aI204
aI207
aI208
aI212
aI213
aI225
aI226
aI227
aI228
aI229
aI230
aI232
aI234
aI237
aI238
aI239
aI240
aI241
aI249
aI252
aI257
aI262
aI264
aI267
aI270
aI273
aI276
aI279
aI284
aI287
aI290
aI292
aI293
aI294
aI295
aI296
aI299
aI300
aI301
aI302
aI303
atRp11
sS'/System/Library/Frameworks/Python.framework/Versions/2.7/lib/python2.7/unittest/loader.py'
p12
g3
((lp13
I1
aI131
aI4
aI5
aI134
aI135
aI136
aI137
aI138
aI139
aI12
aI141
aI14
aI143
aI19
aI22
aI27
aI30
aI6
aI294
aI297
aI42
aI43
aI44
aI45
aI46
aI48
aI305
aI10
aI308
aI309
aI54
aI9
aI312
aI57
aI59
aI61
aI62
aI63
aI64
aI65
aI67
aI68
aI69
aI140
aI75
aI77
aI207
aI56
aI313
aI7
aI219
aI229
aI3
aI50
aI38
aI233
aI237
aI53
aI124
atRp14
sS'/System/Library/Frameworks/Python.framework/Versions/2.7/lib/python2.7/posixpath.py'
p15
g3
((lp16
I121
aI122
atRp17
sS'/System/Library/Frameworks/Python.framework/Versions/2.7/lib/python2.7/fnmatch.py'
p18
g3
((lp19
I67
aI81
aI11
aI13
aI45
aI17
aI18
aI20
aI24
aI15
atRp20
sS'/System/Library/Frameworks/Python.framework/Versions/2.7/lib/python2.7/sre_parse.py'
p21
g3
((lp22
I513
aI514
aI683
aI517
aI519
aI521
aI524
aI526
aI529
aI688
aI684
aI69
aI70
aI71
aI72
aI697
aI92
aI93
aI94
aI95
aI96
aI702
aI128
aI132
aI133
aI134
aI136
aI140
aI143
aI144
aI145
aI146
aI147
aI148
aI661
aI664
aI665
aI667
aI668
aI669
aI158
aI674
aI166
aI167
aI168
aI681
aI682
aI171
aI172
aI173
aI686
aI175
aI176
aI689
aI691
aI180
aI181
aI182
aI184
aI185
aI186
aI187
aI188
aI189
aI190
aI193
aI194
aI195
aI197
aI198
aI199
aI200
aI201
aI203
aI204
aI205
aI260
aI261
aI262
aI263
aI264
aI266
aI267
aI268
aI275
aI280
aI296
aI297
aI305
aI306
aI307
aI308
aI309
aI310
aI312
aI313
aI319
aI320
aI694
aI382
aI149
aI385
aI386
aI387
aI388
aI389
aI390
aI391
aI392
aI394
aI396
aI398
aI399
aI400
aI402
aI413
aI414
aI416
aI418
aI419
aI422
aI425
aI426
aI427
aI428
aI429
aI430
aI432
aI433
aI436
aI438
aI439
aI445
aI446
aI449
aI450
aI452
aI453
aI454
aI456
aI460
aI162
aI462
aI465
aI467
aI471
aI473
aI475
aI476
aI477
aI478
aI679
aI169
aI170
atRp23
sS'/System/Library/Frameworks/Python.framework/Versions/2.7/lib/python2.7/StringIO.py'
p24
g3
((lp25
I258
aI139
aI278
aI30
aI31
aI32
aI36
aI38
aI168
aI42
aI53
aI54
aI187
aI65
aI323
aI68
aI208
aI81
aI88
aI95
aI241
aI114
aI119
aI253
atRp26
sS'/System/Library/Frameworks/Python.framework/Versions/2.7/lib/python2.7/difflib.py'
p27
g3
((lp28
I235
aI261
aI1158
aI1159
aI1672
aI2058
aI751
aI1944
aI531
aI1813
aI1686
aI1943
aI152
aI1689
aI1690
aI1711
aI1692
aI925
aI1694
aI31
aI32
aI33
aI930
aI35
aI1316
aI37
aI39
aI41
aI46
aI29
aI1712
aI1841
aI306
aI691
aI1688
aI1758
aI1242
aI1695
aI703
aI1056
aI1862
aI1735
aI1352
aI1353
aI586
aI460
aI1230
aI1106
aI1108
aI36
aI858
aI1243
aI860
aI1885
aI350
aI223
aI945
aI1634
aI1124
aI2022
aI662
aI1896
aI1643
aI1670
aI154
aI1043
aI884
aI1653
aI1691
aI2054
aI1147
aI636
aI2020
aI766
atRp29
sS'/Library/Python/2.7/site-packages/figleaf-0.6.1-py2.7.egg/figleaf/__init__.py'
p30
g3
((lp31
I234
aI235
atRp32
sS'/System/Library/Frameworks/Python.framework/Versions/2.7/lib/python2.7/collections.py'
p33
g3
((lp34
I308
aI309
aI310
aI311
aI322
aI323
aI326
aI329
aI332
aI333
aI334
aI337
aI339
aI342
aI343
aI344
aI345
aI346
aI347
aI348
aI349
aI350
aI352
aI357
aI358
aI359
aI360
aI363
aI369
aI370
aI374
atRp35
sS'/System/Library/Frameworks/Python.framework/Versions/2.7/lib/python2.7/unittest/__init__.py'
p36
g3
((lp37
I64
aI65
aI66
aI69
aI45
aI47
aI48
aI49
aI50
aI51
aI54
aI56
aI58
aI59
aI61
aI62
atRp38
sS'/System/Library/Frameworks/Python.framework/Versions/2.7/lib/python2.7/functools.py'
p39
g3
((lp40
I96
aI33
aI34
aI50
aI100
aI37
aI35
aI32
aI98
aI82
aI83
aI84
aI85
aI86
aI87
aI88
aI90
aI92
aI94
aI51
atRp41
sS'/System/Library/Frameworks/Python.framework/Versions/2.7/lib/python2.7/getopt.py'
p42
g3
((lp43
I144
aI34
aI36
aI166
aI38
aI39
aI15
aI41
aI202
aI83
aI46
aI79
aI208
aI49
aI82
aI51
aI78
aI40
aI187
aI92
aI94
atRp44
sS'/System/Library/Frameworks/Python.framework/Versions/2.7/lib/python2.7/unittest/result.py'
p45
g3
((lp46
I128
aI1
aI130
aI3
aI4
aI5
aI134
aI7
aI9
aI10
aI139
aI12
aI14
aI15
aI144
aI146
aI148
aI22
aI23
aI152
aI26
aI36
aI37
aI38
aI39
aI40
aI41
aI42
aI43
aI44
aI45
aI46
aI47
aI48
aI49
aI50
aI51
aI52
aI53
aI54
aI183
aI56
aI180
aI59
aI61
aI62
aI63
aI65
aI66
aI73
aI79
aI81
aI82
aI84
aI85
aI105
aI111
aI190
aI119
aI20
aI126
atRp47
sS'/System/Library/Frameworks/Python.framework/Versions/2.7/lib/python2.7/unittest/main.py'
p48
g3
((lp49
I1
aI3
aI4
aI5
aI7
aI8
aI10
aI139
aI12
aI141
aI14
aI88
aI149
aI89
aI153
aI154
aI155
aI160
aI91
aI92
aI43
aI93
aI222
aI95
aI63
aI66
aI67
aI70
aI225
aI72
aI73
aI74
aI75
aI76
aI77
aI78
aI13
aI82
aI83
aI85
aI86
aI87
aI216
aI217
aI90
aI219
aI220
aI221
aI94
aI223
aI224
aI97
aI59
aI232
aI233
aI234
aI236
aI111
aI112
aI116
aI117
aI118
aI119
aI120
atRp50
sS'/System/Library/Frameworks/Python.framework/Versions/2.7/lib/python2.7/unittest/runner.py'
p51
g3
((lp52
I1
aI3
aI4
aI6
aI7
aI9
aI12
aI13
aI14
aI15
aI17
aI18
aI20
aI22
aI23
aI24
aI25
aI28
aI32
aI33
aI34
aI36
aI37
aI38
aI39
aI40
aI41
aI43
aI50
aI51
aI52
aI57
aI58
aI59
aI61
aI62
aI63
aI65
aI73
aI81
aI89
aI97
aI105
aI106
aI107
aI108
aI109
aI111
aI112
aI119
aI124
aI125
aI127
aI128
aI129
aI130
aI131
aI132
aI133
aI134
aI137
aI138
aI140
aI142
aI143
aI144
aI145
aI146
aI147
aI148
aI149
aI150
aI151
aI153
aI154
aI155
aI156
aI157
aI158
aI159
aI160
aI161
aI162
aI163
aI164
aI166
aI167
aI168
aI169
aI170
aI174
aI176
aI177
aI185
aI186
aI188
aI190
aI192
aI195
aI196
atRp53
sS'/Users/michaelhilton/Development/Mycyberdojo/katas/02/C3D09368/snake/sandbox/untitled.py'
p54
g3
((lp55
I2
aI3
aI4
aI6
aI7
aI8
aI9
aI11
aI12
aI13
aI14
aI15
aI17
aI18
atRp56
sS'/System/Library/Frameworks/Python.framework/Versions/2.7/lib/python2.7/unittest/util.py'
p57
g3
((lp58
I1
aI98
aI100
aI5
aI7
aI8
aI135
aI2
aI142
aI18
aI21
aI62
atRp59
sS'/System/Library/Frameworks/Python.framework/Versions/2.7/lib/python2.7/re.py'
p60
g3
((lp61
I228
aI229
aI230
aI232
aI233
aI237
aI239
aI240
aI243
aI245
aI246
aI190
atRp62
sS'/Users/michaelhilton/Development/Mycyberdojo/katas/02/C3D09368/snake/sandbox/test_untitled.py'
p63
g3
((lp64
I1
aI2
aI4
aI6
aI7
aI8
aI10
aI11
aI12
aI14
aI15
aI16
aI18
aI19
aI20
aI21
aI22
aI23
aI24
aI25
aI27
aI28
aI30
aI31
aI33
aI34
aI36
aI37
atRp65
sS'/System/Library/Frameworks/Python.framework/Versions/2.7/lib/python2.7/unittest/case.py'
p66
g3
((lp67
I1
aI514
aI1027
aI4
aI5
aI6
aI1025
aI8
aI9
aI10
aI12
aI13
aI1038
aI527
aI1042
aI515
aI1045
aI22
aI1048
aI25
aI31
aI32
aI1057
aI34
aI1060
aI39
aI1064
aI41
aI7
aI1068
aI45
aI48
aI49
aI51
aI565
aI54
aI1034
aI70
aI98
aI78
aI821
aI87
aI601
aI602
aI603
aI604
aI605
aI3
aI609
aI610
aI99
aI101
aI615
aI617
aI106
aI619
aI620
aI109
aI622
aI623
aI625
aI19
aI618
aI639
aI640
aI641
aI644
aI133
aI193
aI650
aI651
aI652
aI621
aI657
aI658
aI659
aI664
aI665
aI666
aI164
aI166
aI168
aI170
aI517
aI174
aI178
aI180
aI185
aI186
aI187
aI188
aI192
aI288
aI198
aI199
aI200
aI201
aI202
aI203
aI204
aI205
aI210
aI728
aI734
aI223
aI225
aI744
aI233
aI746
aI235
aI237
aI239
aI241
aI245
aI249
aI252
aI255
aI266
aI269
aI275
aI278
aI281
aI284
aI800
aI1072
aI807
aI297
aI298
aI299
aI814
aI305
aI306
aI308
aI309
aI310
aI827
aI319
aI320
aI321
aI322
aI839
aI330
aI331
aI865
aI357
aI359
aI360
aI367
aI368
aI369
aI370
aI372
aI373
aI378
aI381
aI382
aI383
aI392
aI905
aI394
aI395
aI397
aI406
aI410
aI414
aI928
aI420
aI934
aI426
aI940
aI946
aI952
aI958
aI757
aI448
aI964
aI971
aI978
aI477
aI995
aI1004
aI494
aI495
aI496
aI497
aI498
aI499
aI501
aI503
aI505
aI1018
aI510
atRp68
sS'/Library/Python/2.7/site-packages/figleaf-0.6.1-py2.7.egg/figleaf/internals.py'
p69
g3
((lp70
I98
aI99
atRp71
sS'/System/Library/Frameworks/Python.framework/Versions/2.7/lib/python2.7/threading.py'
p72
g3
((lp73
I107
atRp74
sS'<string>'
p75
g3
((lp76
I1
aI2
aI35
aI4
aI6
aI39
aI8
aI41
aI43
aI12
aI13
aI20
aI24
aI28
atRp77
sS'/System/Library/Frameworks/Python.framework/Versions/2.7/lib/python2.7/pprint.py'
p78
g3
((lp79
I128
aI132
aI35
aI37
aI38
aI40
aI41
aI45
aI46
aI49
aI50
aI51
aI52
aI55
aI61
aI65
aI69
aI73
aI77
aI334
aI339
aI84
aI85
aI352
aI231
aI240
aI116
aI120
aI250
aI125
atRp80
sS'/System/Library/Frameworks/Python.framework/Versions/2.7/lib/python2.7/unittest/signals.py'
p81
g3
((lp82
I1
aI2
aI4
aI6
aI41
aI10
aI43
aI45
aI48
aI49
aI9
aI57
aI28
aI42
atRp83
s.